target datalayout = "e-m:e-p270:32:32-p271:32:32-p272:64:64-i64:64-i128:128-f80:128-n8:16:32:64-S128"
target triple = "x86_64-unknown-linux-gnu"

%"class.v8::IndirectHandleBase" = type { ptr }
%"class.v8::Global" = type { %"class.v8::PersistentBase" }
%"class.v8::PersistentBase" = type { %"class.v8::IndirectHandleBase" }
%"class.v8::Global.0" = type { %"class.v8::PersistentBase.1" }
%"class.v8::PersistentBase.1" = type { %"class.v8::IndirectHandleBase" }
%"class.v8impl::RefTracker" = type { ptr, ptr, ptr }
%"class.std::unordered_set" = type { %"class.std::_Hashtable" }
%"class.std::_Hashtable" = type { ptr, i64, %"struct.std::__detail::_Hash_node_base", i64, %"struct.std::__detail::_Prime_rehash_policy", ptr }
%"struct.std::__detail::_Hash_node_base" = type { ptr }
%"struct.std::__detail::_Prime_rehash_policy" = type { float, i64 }
%struct.napi_extended_error_info = type { ptr, ptr, i32, i32 }
%struct.napi_env__ = type <{ ptr, ptr, %"class.v8::Global", %"class.v8::Global.0", %"class.v8impl::RefTracker", %"class.v8impl::RefTracker", %"class.std::unordered_set", %struct.napi_extended_error_info, i32, i32, i32, [4 x i8], ptr, i32, i8, [3 x i8] }>
%"class.v8impl::Finalizer" = type { ptr, ptr, ptr, ptr, ptr }

@_ZTVN6v8impl12_GLOBAL__N_115BufferFinalizerE = internal unnamed_addr constant { [4 x ptr] } { [4 x ptr] [ptr null, ptr null, ptr @_ZN6v8impl12_GLOBAL__N_115BufferFinalizerD2Ev, ptr @_ZN6v8impl12_GLOBAL__N_115BufferFinalizerD0Ev] }, align 8

; Function Attrs: mustprogress nounwind uwtable
define linkonce_odr dso_local void @_ZN6v8impl9FinalizerD2Ev(ptr noundef nonnull align 8 dereferenceable(40) %this) unnamed_addr #4 comdat align 2 {
entry:
  %this.addr = alloca ptr, align 8
  store ptr %this, ptr %this.addr, align 8
  ret void
}

; Function Attrs: mustprogress nounwind uwtable
define linkonce_odr dso_local void @_ZN10napi_env__5UnrefEv(ptr noundef nonnull align 8 dereferenceable(189) %this) #4 comdat align 2 {
entry:
  %this.addr = alloca ptr, align 8
  store ptr %this, ptr %this.addr, align 8
  %this1 = load ptr, ptr %this.addr, align 8
  %refs = getelementptr inbounds %struct.napi_env__, ptr %this1, i32 0, i32 10
  %0 = load i32, ptr %refs, align 8
  %dec = add nsw i32 %0, -1
  store i32 %dec, ptr %refs, align 8
  %cmp = icmp eq i32 %dec, 0
  br i1 %cmp, label %if.then, label %if.end

if.then:                                          ; preds = %entry
  %vtable = load ptr, ptr %this1, align 8
  %vfn = getelementptr inbounds ptr, ptr %vtable, i64 4
  %1 = load ptr, ptr %vfn, align 8
  call void %1(ptr noundef nonnull align 8 dereferenceable(189) %this1)
  br label %if.end

if.end:                                           ; preds = %if.then, %entry
  ret void
}

; Function Attrs: mustprogress nounwind uwtable
define internal void @_ZN6v8impl12_GLOBAL__N_115BufferFinalizerD2Ev(ptr noundef nonnull align 8 dereferenceable(40) %this) unnamed_addr #4 align 2 {
entry:
  %this.addr = alloca ptr, align 8
  store ptr %this, ptr %this.addr, align 8
  %this1 = load ptr, ptr %this.addr, align 8
  store ptr getelementptr inbounds ({ [4 x ptr] }, ptr @_ZTVN6v8impl12_GLOBAL__N_115BufferFinalizerE, i32 0, i32 0, i32 2), ptr %this1, align 8
  %env_ = getelementptr inbounds %"class.v8impl::Finalizer", ptr %this1, i32 0, i32 1
  %0 = load ptr, ptr %env_, align 8
  call void @_ZN10napi_env__5UnrefEv(ptr noundef nonnull align 8 dereferenceable(189) %0)
  call void @_ZN6v8impl9FinalizerD2Ev(ptr noundef nonnull align 8 dereferenceable(40) %this1) #3
  ret void
}