; Function Attrs: mustprogress nounwind uwtable
define internal void @_ZN6v8impl12_GLOBAL__N_115BufferFinalizerD2Ev(ptr nocapture noundef nonnull align 8 dereferenceable(40) %this) unnamed_addr #3 align 2 {
entry:
  store ptr getelementptr inbounds ({ [4 x ptr] }, ptr @_ZTVN6v8impl12_GLOBAL__N_115BufferFinalizerE, i64 0, i32 0, i64 2), ptr %this, align 8
  %env_ = getelementptr inbounds i8, ptr %this, i64 8
  %0 = load ptr, ptr %env_, align 8
  %refs.i = getelementptr inbounds i8, ptr %0, i64 168
  %1 = load i32, ptr %refs.i, align 8
  %dec.i = add nsw i32 %1, -1
  store i32 %dec.i, ptr %refs.i, align 8
  %cmp.i = icmp eq i32 %dec.i, 0
  br i1 %cmp.i, label %if.then.i, label %_ZN10napi_env__5UnrefEv.exit

if.then.i:                                        ; preds = %entry
  %vtable.i = load ptr, ptr %0, align 8
  %vfn.i = getelementptr inbounds i8, ptr %vtable.i, i64 32
  %2 = load ptr, ptr %vfn.i, align 8
  tail call void %2(ptr noundef nonnull align 8 dereferenceable(189) %0) #21
  br label %_ZN10napi_env__5UnrefEv.exit

_ZN10napi_env__5UnrefEv.exit:                     ; preds = %entry, %if.then.i
  ret void
}